ccopy_reg
_reconstructor
p0
(cgoogle.oauth2.credentials
Credentials
p1
c__builtin__
object
p2
Ntp3
Rp4
(dp5
S'_token_uri'
p6
Vhttps://oauth2.googleapis.com/token
p7
sS'_scopes'
p8
(lp9
S'https://mail.google.com/'
p10
asS'_id_token'
p11
NsS'token'
p12
Vya29.Gl3YBkVsEPonOzsJIJt7vMFa2WZZoe-P0UW9BhYI3IrIcZ1tzeEoPyMjLCxtAXHhXJNdHPiJidBht84DvBI_hDHaLgeex57tI9RVeDbBZAAtF3Vb6V-C7kb2Vf0tuDY
p13
sS'_refresh_token'
p14
V1/PZ6qKB7QyJrSqB8tqVZQGpiMHulq8jwSX5C1b2Ymr7XIloXq1sJgccVS_AfJe0Ly
p15
sS'_client_secret'
p16
V8XpRnCgz3ebsymbgJGZ6IL46
p17
sS'_client_id'
p18
V1012508610548-mksdivpe8tge7f2grhbpnu58llserjv2.apps.googleusercontent.com
p19
sS'expiry'
p20
cdatetime
datetime
p21
(S'\x07\xe3\x03\x1a\x0b\x16\x07\x0b\xc8\xbf'
p22
tp23
Rp24
sb.