ccopy_reg
_reconstructor
p0
(cgoogle.oauth2.credentials
Credentials
p1
c__builtin__
object
p2
Ntp3
Rp4
(dp5
S'_token_uri'
p6
Vhttps://oauth2.googleapis.com/token
p7
sS'_client_secret'
p8
V8XpRnCgz3ebsymbgJGZ6IL46
p9
sS'_id_token'
p10
NsS'token'
p11
Vya29.Glu3BjEaB911yfdxQZvXHt4GZaRJOcjHmNxFYrxMVB_cN7mAZdnZZKlmTLAsBl9GMNnW1kgxMOlUhk3uxHOLCVS-C8R36aa8kouQN39t78miMYgPwFZdCn-gh2fj
p12
sS'_refresh_token'
p13
V1/PZ6qKB7QyJrSqB8tqVZQGpiMHulq8jwSX5C1b2Ymr7XIloXq1sJgccVS_AfJe0Ly
p14
sS'_scopes'
p15
(lp16
S'https://mail.google.com/'
p17
asS'_client_id'
p18
V1012508610548-mksdivpe8tge7f2grhbpnu58llserjv2.apps.googleusercontent.com
p19
sS'expiry'
p20
cdatetime
datetime
p21
(S'\x07\xe3\x02\x15\x13&\n\x05]\xa9'
p22
tp23
Rp24
sb.